target datalayout = "e-m:e-p270:32:32-p271:32:32-p272:64:64-i64:64-i128:128-f80:128-n8:16:32:64-S128"
target triple = "x86_64-pc-linux-gnu"

%"class.pstd::pmr::monotonic_buffer_resource" = type { %"class.pstd::pmr::memory_resource", ptr, i64, ptr, i64, ptr, [16 x i8] }
%"class.pstd::pmr::memory_resource" = type { ptr }
%"class.pstd::pmr::polymorphic_allocator" = type { ptr }
%"class.std::shared_mutex" = type { %"class.std::__shared_mutex_pthread" }
%"class.std::__shared_mutex_pthread" = type { %union.pthread_rwlock_t }
%union.pthread_rwlock_t = type { %struct.__pthread_rwlock_arch_t }
%struct.__pthread_rwlock_arch_t = type { i32, i32, i32, i32, i32, i32, i32, i32, i8, [7 x i8], i64, i32 }
%"class.std::__cxx11::basic_string" = type { %"struct.std::__cxx11::basic_string<char>::_Alloc_hider", i64, %union.anon }
%"struct.std::__cxx11::basic_string<char>::_Alloc_hider" = type { ptr }
%union.anon = type { i64, [8 x i8] }
%"class.pbrt::BasicSceneBuilder" = type { %"class.pbrt::ParserTarget.base", ptr, i32, [4 x i8], %"struct.pbrt::BasicSceneBuilder::GraphicsState", %"class.std::map", %"class.pbrt::Transform", [32 x i8], %"class.pbrt::InternCache.11", %"class.std::vector", %"class.std::vector.18", ptr, %"class.std::vector.23", %"class.std::vector.28", %"class.std::set", %"class.std::set", %"class.std::set", %"class.std::set", %"class.std::set", i32, i32, %"struct.pbrt::SceneEntity", %"struct.pbrt::SceneEntity", %"struct.pbrt::SceneEntity", %"struct.pbrt::SceneEntity", %"struct.pbrt::SceneEntity", %"struct.pbrt::CameraSceneEntity", [40 x i8] }
%"class.pbrt::ParserTarget.base" = type <{ ptr, i8 }>
%"struct.pbrt::BasicSceneBuilder::GraphicsState" = type <{ %"class.std::__cxx11::basic_string", %"class.std::__cxx11::basic_string", i32, [4 x i8], %"class.std::__cxx11::basic_string", %"class.std::__cxx11::basic_string", %"class.pbrt::ParameterDictionary", %"struct.pbrt::FileLoc", %"class.pbrt::InlinedVector", %"class.pbrt::InlinedVector", %"class.pbrt::InlinedVector", %"class.pbrt::InlinedVector", %"class.pbrt::InlinedVector", i8, [7 x i8], ptr, %"struct.pbrt::TransformSet", i32, float, float, [4 x i8] }>
%"class.pbrt::ParameterDictionary" = type <{ %"class.pbrt::InlinedVector", ptr, i32, [4 x i8] }>
%"struct.pbrt::FileLoc" = type { %"class.std::basic_string_view", i32, i32 }
%"class.std::basic_string_view" = type { i64, ptr }
%"class.pbrt::InlinedVector" = type { %"class.pstd::pmr::polymorphic_allocator.5", ptr, %union.anon.6, i64, i64 }
%"class.pstd::pmr::polymorphic_allocator.5" = type { ptr }
%union.anon.6 = type { [8 x ptr] }
%"struct.pbrt::TransformSet" = type { [2 x %"class.pbrt::Transform"] }
%"class.std::map" = type { %"class.std::_Rb_tree" }
%"class.std::_Rb_tree" = type { %"struct.std::_Rb_tree<std::__cxx11::basic_string<char>, std::pair<const std::__cxx11::basic_string<char>, pbrt::TransformSet>, std::_Select1st<std::pair<const std::__cxx11::basic_string<char>, pbrt::TransformSet>>, std::less<std::__cxx11::basic_string<char>>>::_Rb_tree_impl" }
%"struct.std::_Rb_tree<std::__cxx11::basic_string<char>, std::pair<const std::__cxx11::basic_string<char>, pbrt::TransformSet>, std::_Select1st<std::pair<const std::__cxx11::basic_string<char>, pbrt::TransformSet>>, std::less<std::__cxx11::basic_string<char>>>::_Rb_tree_impl" = type { [8 x i8], %"struct.std::_Rb_tree_header" }
%"struct.std::_Rb_tree_header" = type { %"struct.std::_Rb_tree_node_base", i64 }
%"struct.std::_Rb_tree_node_base" = type { i32, ptr, ptr, ptr }
%"class.pbrt::Transform" = type { %"class.pbrt::SquareMatrix.7", %"class.pbrt::SquareMatrix.7" }
%"class.pbrt::SquareMatrix.7" = type { [4 x [4 x float]] }
%"class.pbrt::InternCache.11" = type { %"class.pstd::pmr::monotonic_buffer_resource", %"class.pstd::pmr::polymorphic_allocator", i64, %"class.pstd::vector.12", %"class.std::shared_mutex", [24 x i8] }
%"class.pstd::vector.12" = type { %"class.pstd::pmr::polymorphic_allocator.13", ptr, i64, i64 }
%"class.pstd::pmr::polymorphic_allocator.13" = type { ptr }
%"class.std::vector" = type { %"struct.std::_Vector_base" }
%"struct.std::_Vector_base" = type { %"struct.std::_Vector_base<pbrt::BasicSceneBuilder::GraphicsState, std::allocator<pbrt::BasicSceneBuilder::GraphicsState>>::_Vector_impl" }
%"struct.std::_Vector_base<pbrt::BasicSceneBuilder::GraphicsState, std::allocator<pbrt::BasicSceneBuilder::GraphicsState>>::_Vector_impl" = type { %"struct.std::_Vector_base<pbrt::BasicSceneBuilder::GraphicsState, std::allocator<pbrt::BasicSceneBuilder::GraphicsState>>::_Vector_impl_data" }
%"struct.std::_Vector_base<pbrt::BasicSceneBuilder::GraphicsState, std::allocator<pbrt::BasicSceneBuilder::GraphicsState>>::_Vector_impl_data" = type { ptr, ptr, ptr }
%"class.std::vector.18" = type { %"struct.std::_Vector_base.19" }
%"struct.std::_Vector_base.19" = type { %"struct.std::_Vector_base<std::pair<char, pbrt::FileLoc>, std::allocator<std::pair<char, pbrt::FileLoc>>>::_Vector_impl" }
%"struct.std::_Vector_base<std::pair<char, pbrt::FileLoc>, std::allocator<std::pair<char, pbrt::FileLoc>>>::_Vector_impl" = type { %"struct.std::_Vector_base<std::pair<char, pbrt::FileLoc>, std::allocator<std::pair<char, pbrt::FileLoc>>>::_Vector_impl_data" }
%"struct.std::_Vector_base<std::pair<char, pbrt::FileLoc>, std::allocator<std::pair<char, pbrt::FileLoc>>>::_Vector_impl_data" = type { ptr, ptr, ptr }
%"class.std::vector.23" = type { %"struct.std::_Vector_base.24" }
%"struct.std::_Vector_base.24" = type { %"struct.std::_Vector_base<pbrt::ShapeSceneEntity, std::allocator<pbrt::ShapeSceneEntity>>::_Vector_impl" }
%"struct.std::_Vector_base<pbrt::ShapeSceneEntity, std::allocator<pbrt::ShapeSceneEntity>>::_Vector_impl" = type { %"struct.std::_Vector_base<pbrt::ShapeSceneEntity, std::allocator<pbrt::ShapeSceneEntity>>::_Vector_impl_data" }
%"struct.std::_Vector_base<pbrt::ShapeSceneEntity, std::allocator<pbrt::ShapeSceneEntity>>::_Vector_impl_data" = type { ptr, ptr, ptr }
%"class.std::vector.28" = type { %"struct.std::_Vector_base.29" }
%"struct.std::_Vector_base.29" = type { %"struct.std::_Vector_base<pbrt::InstanceSceneEntity, std::allocator<pbrt::InstanceSceneEntity>>::_Vector_impl" }
%"struct.std::_Vector_base<pbrt::InstanceSceneEntity, std::allocator<pbrt::InstanceSceneEntity>>::_Vector_impl" = type { %"struct.std::_Vector_base<pbrt::InstanceSceneEntity, std::allocator<pbrt::InstanceSceneEntity>>::_Vector_impl_data" }
%"struct.std::_Vector_base<pbrt::InstanceSceneEntity, std::allocator<pbrt::InstanceSceneEntity>>::_Vector_impl_data" = type { ptr, ptr, ptr }
%"class.std::set" = type { %"class.std::_Rb_tree.33" }
%"class.std::_Rb_tree.33" = type { %"struct.std::_Rb_tree<std::__cxx11::basic_string<char>, std::__cxx11::basic_string<char>, std::_Identity<std::__cxx11::basic_string<char>>, std::less<std::__cxx11::basic_string<char>>>::_Rb_tree_impl" }
%"struct.std::_Rb_tree<std::__cxx11::basic_string<char>, std::__cxx11::basic_string<char>, std::_Identity<std::__cxx11::basic_string<char>>, std::less<std::__cxx11::basic_string<char>>>::_Rb_tree_impl" = type { [8 x i8], %"struct.std::_Rb_tree_header" }
%"struct.pbrt::SceneEntity" = type { %"class.pbrt::InternedString", %"struct.pbrt::FileLoc", %"class.pbrt::ParameterDictionary" }
%"class.pbrt::InternedString" = type { ptr }
%"struct.pbrt::CameraSceneEntity" = type { %"struct.pbrt::SceneEntity", %"class.pbrt::CameraTransform", %"class.std::__cxx11::basic_string" }
%"class.pbrt::CameraTransform" = type { %"class.pbrt::AnimatedTransform", %"class.pbrt::Transform" }
%"class.pbrt::AnimatedTransform" = type { %"class.pbrt::Transform", %"class.pbrt::Transform", float, float, i8, [2 x %"class.pbrt::Vector3"], [2 x %"class.pbrt::Quaternion"], [2 x %"class.pbrt::SquareMatrix.7"], i8, [3 x %"struct.pbrt::AnimatedTransform::DerivativeTerm"], [3 x %"struct.pbrt::AnimatedTransform::DerivativeTerm"], [3 x %"struct.pbrt::AnimatedTransform::DerivativeTerm"], [3 x %"struct.pbrt::AnimatedTransform::DerivativeTerm"], [3 x %"struct.pbrt::AnimatedTransform::DerivativeTerm"] }
%"class.pbrt::Vector3" = type { %"class.pbrt::Tuple3" }
%"class.pbrt::Tuple3" = type { float, float, float }
%"class.pbrt::Quaternion" = type { %"class.pbrt::Vector3", float }
%"struct.pbrt::AnimatedTransform::DerivativeTerm" = type { float, float, float, float }

@.str.20 = private unnamed_addr constant [63 x i8] c"Options cannot be set inside world block; \22%s\22 is not allowed.\00", align 1
@.str.79 = private unnamed_addr constant [15 x i8] c"TransformTimes\00", align 1

; Function Attrs: mustprogress uwtable
define dso_local void @_ZN4pbrt17BasicSceneBuilder14TransformTimesEffNS_7FileLocE(ptr noundef nonnull align 64 dereferenceable(3544) %0, float noundef %1, float noundef %2, ptr noundef byval(%"struct.pbrt::FileLoc") align 8 %3) unnamed_addr #1 align 2 {
  %5 = alloca ptr, align 8
  %6 = alloca float, align 4
  %7 = alloca float, align 4
  store ptr %0, ptr %5, align 8, !tbaa !33
  store float %1, ptr %6, align 4, !tbaa !9
  store float %2, ptr %7, align 4, !tbaa !9
  %8 = load ptr, ptr %5, align 8
  %9 = getelementptr inbounds nuw %"class.pbrt::BasicSceneBuilder", ptr %8, i32 0, i32 2
  %10 = load i32, ptr %9, align 8, !tbaa !135
  %11 = icmp eq i32 %10, 1
  br i1 %11, label %12, label %13

12:                                               ; preds = %4
  call void @_ZN4pbrt9ErrorExitIJRA15_KcEEEvPKNS_7FileLocEPS1_DpOT_(ptr noundef %3, ptr noundef @.str.20, ptr noundef nonnull align 1 dereferenceable(15) @.str.79) #27
  unreachable

13:                                               ; preds = %4
  br label %14

14:                                               ; preds = %13
  %15 = load float, ptr %6, align 4, !tbaa !9
  %16 = getelementptr inbounds nuw %"class.pbrt::BasicSceneBuilder", ptr %8, i32 0, i32 4
  %17 = getelementptr inbounds nuw %"struct.pbrt::BasicSceneBuilder::GraphicsState", ptr %16, i32 0, i32 18
  store float %15, ptr %17, align 4, !tbaa !196
  %18 = load float, ptr %7, align 4, !tbaa !9
  %19 = getelementptr inbounds nuw %"class.pbrt::BasicSceneBuilder", ptr %8, i32 0, i32 4
  %20 = getelementptr inbounds nuw %"struct.pbrt::BasicSceneBuilder::GraphicsState", ptr %19, i32 0, i32 19
  store float %18, ptr %20, align 8, !tbaa !197
  ret void
}