; Function Attrs: mustprogress uwtable
define dso_local void @_ZN4pbrt17BasicSceneBuilder14TransformTimesEffNS_7FileLocE(ptr noundef nonnull align 64 captures(none) dereferenceable(3544) %0, float noundef %1, float noundef %2, ptr noundef byval(%"struct.pbrt::FileLoc") align 8 %3) unnamed_addr #5 align 2 {
  %5 = getelementptr inbounds nuw i8, ptr %0, i64 24
  %6 = load i32, ptr %5, align 8, !tbaa !122
  %7 = icmp eq i32 %6, 1
  br i1 %7, label %8, label %9

8:                                                ; preds = %4
  call void @_ZN4pbrt9ErrorExitIJRA15_KcEEEvPKNS_7FileLocEPS1_DpOT_(ptr noundef nonnull %3, ptr noundef nonnull @.str.20, ptr noundef nonnull align 1 dereferenceable(15) @.str.79) #37
  unreachable

9:                                                ; preds = %4
  %10 = getelementptr inbounds nuw i8, ptr %0, i64 1060
  store float %1, ptr %10, align 4, !tbaa !199
  %11 = getelementptr inbounds nuw i8, ptr %0, i64 1064
  store float %2, ptr %11, align 8, !tbaa !200
  ret void
}